; Function Attrs: nounwind uwtable
define void @OPENSSL_thread_stop_ex(ptr noundef %0) local_unnamed_addr #0 {
  %2 = tail call ptr @ossl_lib_ctx_get_concrete(ptr noundef %0) #2
  %3 = load i64, ptr @destructor_key, align 8, !tbaa !17
  %.not.i = icmp eq i64 %3, -1
  br i1 %.not.i, label %ossl_ctx_thread_stop.exit, label %4

4:                                                ; preds = %1
  %5 = tail call ptr @CRYPTO_THREAD_get_local(ptr noundef nonnull @destructor_key) #2
  tail call fastcc void @init_thread_stop(ptr noundef %2, ptr noundef %5)
  br label %ossl_ctx_thread_stop.exit

ossl_ctx_thread_stop.exit:                        ; preds = %1, %4
  ret void
}